Certificate:
    Data:
        Version: 3 (0x2)
        Serial Number: 181684660067191 (0xa53dc19fdb77)
    Signature Algorithm: sha256WithRSAEncryption
        Issuer: C=ID, ST=Jawa Timur, L=Surabaya, O=SevenLayer Security Inc., OU=SevenLayer Security Certificate Issuer, CN=SevenLayer Security Unified CA/emailAddress=admin@azurehero.com
        Validity
            Not Before: May  5 20:47:52 2015 GMT
            Not After : May  4 20:47:52 2016 GMT
        Subject: C=ID, ST=Jawa Timur, L=Surabaya, O=coba1, OU=coba1, CN=coba1
        Subject Public Key Info:
            Public Key Algorithm: rsaEncryption
                Public-Key: (2048 bit)
                Modulus:
                    00:a9:fd:dc:51:81:c4:85:c3:8d:aa:6a:bc:a2:6d:
                    d2:7e:e7:e7:a2:4b:1a:f2:01:7d:d8:82:4a:b0:13:
                    47:3d:85:fc:ca:ef:30:ee:87:82:25:ec:97:f9:b1:
                    24:61:10:f7:7b:8a:93:99:61:a2:d2:a9:d5:11:cd:
                    a6:67:90:e5:c1:a7:0d:ca:36:01:17:54:8c:69:10:
                    ed:10:f9:ac:0b:33:3e:98:e3:71:1a:13:14:94:ad:
                    48:3c:2f:da:1c:62:46:1f:82:6e:72:2d:ba:5b:f2:
                    7a:8f:c6:be:e9:a5:5e:f8:24:22:06:e8:2a:ee:6d:
                    d9:0e:ab:d2:b3:ba:45:e0:95:be:d6:17:de:5b:1b:
                    c5:9b:96:b4:ca:b7:4c:bf:67:5a:60:2a:6c:e6:60:
                    89:dd:5f:eb:b4:f9:25:39:de:9e:e6:69:b6:4a:56:
                    29:92:30:77:d7:c4:5e:fa:70:fe:cb:e3:ab:4d:6c:
                    51:cc:3a:a1:3e:46:e4:41:e5:2e:0d:1b:04:6f:99:
                    49:9c:68:0d:19:b9:42:61:2c:96:05:cb:51:83:e3:
                    d9:a8:ab:3a:13:bd:f9:fa:3f:c7:5e:4c:7a:6a:9d:
                    b6:e3:37:8a:f5:27:f9:7a:d2:b1:2b:3f:a5:99:5b:
                    b7:dd:9d:47:1b:71:56:e4:45:c1:8c:af:ff:26:4b:
                    52:95
                Exponent: 65537 (0x10001)
        X509v3 extensions:
            X509v3 Basic Constraints: 
                CA:FALSE
            X509v3 Subject Key Identifier: 
                76:4C:CD:89:7B:3C:77:E7:6A:72:60:67:AF:B9:0D:EA:2D:F2:E1:C0
            X509v3 Authority Key Identifier: 
                keyid:8E:03:F2:AA:B2:DA:02:AC:63:65:ED:FB:C8:49:80:7E:75:B3:AF:F0

            X509v3 Key Usage: 
                Digital Signature, Non Repudiation
            X509v3 Extended Key Usage: 
                E-mail Protection
            X509v3 Issuer Alternative Name: 
                <EMPTY>

            X509v3 CRL Distribution Points: 

                Full Name:
                  URI:http://pki.azurehero.com/crl.pem
                Reasons:
                  Key Compromise, CA Compromise, Privilege Withdrawn

    Signature Algorithm: sha256WithRSAEncryption
         61:eb:cf:60:c8:de:c6:86:b8:c5:07:a4:ff:ea:9c:72:33:f7:
         59:10:d5:5e:61:a3:80:82:fe:03:c3:6a:ca:3e:02:33:8f:82:
         f8:1a:3a:7e:72:36:27:9a:44:f7:88:0b:bd:a9:d5:9d:69:b0:
         bd:ca:fd:a5:d3:29:90:c8:62:bf:3b:e5:eb:28:68:88:4f:56:
         f7:ae:fa:3f:9e:1d:71:04:15:99:96:7e:48:2b:04:48:cd:3e:
         55:e6:24:8d:cb:28:72:2c:17:a5:02:8b:3d:94:ea:65:82:b2:
         15:ae:f7:11:f1:ca:ff:e8:15:8e:f8:d4:59:23:c9:f2:39:b1:
         ae:0b:83:fb:fd:11:09:9b:23:69:aa:9a:35:82:27:3c:4b:2c:
         50:de:1e:4e:a0:c3:5f:c5:b9:56:58:69:39:3c:39:8d:4f:e2:
         01:99:2c:19:5a:7f:03:0d:29:e8:dd:ec:06:22:c0:93:38:14:
         16:68:6a:cc:6e:f8:10:ef:96:c7:52:42:0a:b6:c0:0a:7a:aa:
         33:6b:f3:f1:31:3d:2a:d7:2b:8f:48:66:c5:3b:af:1c:b1:b7:
         be:16:57:56:67:a7:36:88:0b:64:04:f5:e7:72:2c:de:10:ac:
         8a:b8:04:dc:06:62:f7:d8:68:43:ec:5a:6a:7c:16:eb:dc:d0:
         0d:1e:2e:40
-----BEGIN CERTIFICATE-----
MIIEcDCCA1igAwIBAgIHAKU9wZ/bdzANBgkqhkiG9w0BAQsFADCB1jELMAkGA1UE
BhMCSUQxEzARBgNVBAgMCkphd2EgVGltdXIxETAPBgNVBAcMCFN1cmFiYXlhMSEw
HwYDVQQKDBhTZXZlbkxheWVyIFNlY3VyaXR5IEluYy4xLzAtBgNVBAsMJlNldmVu
TGF5ZXIgU2VjdXJpdHkgQ2VydGlmaWNhdGUgSXNzdWVyMScwJQYDVQQDDB5TZXZl
bkxheWVyIFNlY3VyaXR5IFVuaWZpZWQgQ0ExIjAgBgkqhkiG9w0BCQEWE2FkbWlu
QGF6dXJlaGVyby5jb20wHhcNMTUwNTA1MjA0NzUyWhcNMTYwNTA0MjA0NzUyWjBl
MQswCQYDVQQGEwJJRDETMBEGA1UECAwKSmF3YSBUaW11cjERMA8GA1UEBwwIU3Vy
YWJheWExDjAMBgNVBAoMBWNvYmExMQ4wDAYDVQQLDAVjb2JhMTEOMAwGA1UEAwwF
Y29iYTEwggEiMA0GCSqGSIb3DQEBAQUAA4IBDwAwggEKAoIBAQCp/dxRgcSFw42q
aryibdJ+5+eiSxryAX3YgkqwE0c9hfzK7zDuh4Il7Jf5sSRhEPd7ipOZYaLSqdUR
zaZnkOXBpw3KNgEXVIxpEO0Q+awLMz6Y43EaExSUrUg8L9ocYkYfgm5yLbpb8nqP
xr7ppV74JCIG6CrubdkOq9KzukXglb7WF95bG8WblrTKt0y/Z1pgKmzmYIndX+u0
+SU53p7mabZKVimSMHfXxF76cP7L46tNbFHMOqE+RuRB5S4NGwRvmUmcaA0ZuUJh
LJYFy1GD49moqzoTvfn6P8deTHpqnbbjN4r1J/l60rErP6WZW7fdnUcbcVbkRcGM
r/8mS1KVAgMBAAGjgbIwga8wCQYDVR0TBAIwADAdBgNVHQ4EFgQUdkzNiXs8d+dq
cmBnr7kN6i3y4cAwHwYDVR0jBBgwFoAUjgPyqrLaAqxjZe37yEmAfnWzr/AwCwYD
VR0PBAQDAgbAMBMGA1UdJQQMMAoGCCsGAQUFBwMEMAkGA1UdEgQCMAAwNQYDVR0f
BC4wLDAqoCSgIoYgaHR0cDovL3BraS5henVyZWhlcm8uY29tL2NybC5wZW2BAgBh
MA0GCSqGSIb3DQEBCwUAA4IBAQBh689gyN7GhrjFB6T/6pxyM/dZENVeYaOAgv4D
w2rKPgIzj4L4Gjp+cjYnmkT3iAu9qdWdabC9yv2l0ymQyGK/O+XrKGiIT1b3rvo/
nh1xBBWZln5IKwRIzT5V5iSNyyhyLBelAos9lOplgrIVrvcR8cr/6BWO+NRZI8ny
ObGuC4P7/REJmyNpqpo1gic8SyxQ3h5OoMNfxblWWGk5PDmNT+IBmSwZWn8DDSno
3ewGIsCTOBQWaGrMbvgQ75bHUkIKtsAKeqoza/PxMT0q1yuPSGbFO68csbe+FldW
Z6c2iAtkBPXncizeEKyKuATcBmL32GhD7FpqfBbr3NANHi5A
-----END CERTIFICATE-----
