Certificate:
    Data:
        Version: 3 (0x2)
        Serial Number: 181684660067184 (0xa53dc19fdb70)
    Signature Algorithm: sha256WithRSAEncryption
        Issuer: C=ID, ST=Jawa Timur, L=Surabaya, O=SevenLayer Security Inc., OU=SevenLayer Security Certificate Issuer, CN=SevenLayer Security Unified CA/emailAddress=admin@azurehero.com
        Validity
            Not Before: May  5 20:24:45 2015 GMT
            Not After : May  2 20:24:45 2025 GMT
        Subject: C=ID, ST=Jawa Timur, O=SevenLayer Security Inc., OU=SevenLayer Security Certificate Issuer, CN=SevenLayer Security CRL Authority/emailAddress=admin@azurehero.com
        Subject Public Key Info:
            Public Key Algorithm: rsaEncryption
                Public-Key: (2048 bit)
                Modulus:
                    00:eb:d6:a6:07:63:9d:75:18:ee:91:5b:ca:13:83:
                    87:ad:14:91:85:04:f5:1a:7f:a9:55:ff:50:c8:4f:
                    c6:5b:ab:c1:aa:98:cc:af:a9:95:9c:d0:f3:a4:8a:
                    7c:7b:5a:5d:ec:fe:51:21:01:c7:f2:c4:aa:31:04:
                    e4:02:32:8a:5a:d3:d4:cb:06:23:40:67:ee:96:60:
                    08:b9:b6:3e:e3:98:0a:a5:c0:a2:84:70:8d:d7:dc:
                    fd:df:6f:23:8d:03:79:d6:e1:a1:58:54:30:d9:c3:
                    dc:53:b2:64:b2:07:3a:b4:8b:a3:2a:68:bb:56:f5:
                    ab:60:35:75:4b:f4:cf:ef:9e:d7:83:d5:bf:0b:29:
                    4f:8e:cf:eb:57:00:bb:63:59:eb:a7:2f:61:e7:8e:
                    f2:bb:e8:dc:ed:ad:c9:4a:bc:19:c2:04:bf:ff:bf:
                    0f:99:a7:f8:a2:9f:23:64:ab:71:e6:ea:2b:65:be:
                    9a:b6:25:8c:1f:c5:05:b5:33:d8:2b:b9:cb:65:42:
                    8d:f8:6c:e8:6b:a9:46:a1:7c:1a:f2:19:9a:ad:5d:
                    13:af:2e:b4:e9:c0:eb:d1:91:a6:30:a0:d7:fa:a4:
                    f3:32:4a:96:70:b9:7d:a9:47:04:a5:87:2c:77:ec:
                    5c:cb:9b:85:b8:73:d5:d1:30:9d:37:ac:1d:7e:13:
                    ec:6f
                Exponent: 65537 (0x10001)
        X509v3 extensions:
            X509v3 Basic Constraints: 
                CA:TRUE
            X509v3 Subject Key Identifier: 
                9D:39:59:3E:E9:F8:AC:E7:00:12:89:FB:89:72:1C:8E:F7:2D:8B:03
            X509v3 Authority Key Identifier: 
                keyid:8E:03:F2:AA:B2:DA:02:AC:63:65:ED:FB:C8:49:80:7E:75:B3:AF:F0

            X509v3 Key Usage: critical
                Certificate Sign, CRL Sign
            X509v3 Issuer Alternative Name: 
                <EMPTY>

    Signature Algorithm: sha256WithRSAEncryption
         ad:46:39:b1:c2:cf:64:fb:e6:cc:04:5b:c3:db:69:b3:40:f9:
         ac:3c:db:37:37:6c:6b:88:0d:bb:9d:f1:d2:21:9e:36:8f:42:
         5d:f0:f1:8c:f1:68:4e:42:c8:49:68:7e:fd:a0:69:27:a0:0f:
         86:bc:f7:4d:80:9b:54:db:0c:30:f5:92:66:79:90:ac:1c:89:
         45:9c:6a:b1:7f:5c:46:ac:d1:12:e3:ae:12:c2:97:3a:74:82:
         75:42:31:49:1a:a8:d1:cd:1b:23:69:f5:6b:27:ed:03:14:27:
         5a:e9:a0:27:8e:97:8a:91:fe:5e:18:68:5b:f1:aa:32:5b:e6:
         33:aa:6e:58:14:3b:95:e8:3b:9c:7c:f4:64:df:5f:ae:b1:f5:
         b4:c0:11:9e:fd:77:32:ee:e3:66:21:ba:3c:75:47:03:f2:d3:
         a4:f5:7e:b7:ac:ca:0d:6e:5e:27:93:de:f1:5a:cb:a9:9e:d0:
         78:f4:5f:6e:8a:d2:50:d3:cf:af:ca:c2:c9:ae:b8:5c:6a:3d:
         21:fb:69:1e:ca:12:ef:a6:e8:7e:c4:7b:6a:d9:72:85:95:8c:
         bf:5f:e8:32:4f:e6:9a:f0:b4:37:e8:a8:92:8d:24:de:28:13:
         68:b8:ce:a3:fa:a2:06:74:aa:f5:aa:d3:69:89:e1:ca:8e:c4:
         62:49:2f:09
-----BEGIN CERTIFICATE-----
MIIEijCCA3KgAwIBAgIHAKU9wZ/bcDANBgkqhkiG9w0BAQsFADCB1jELMAkGA1UE
BhMCSUQxEzARBgNVBAgMCkphd2EgVGltdXIxETAPBgNVBAcMCFN1cmFiYXlhMSEw
HwYDVQQKDBhTZXZlbkxheWVyIFNlY3VyaXR5IEluYy4xLzAtBgNVBAsMJlNldmVu
TGF5ZXIgU2VjdXJpdHkgQ2VydGlmaWNhdGUgSXNzdWVyMScwJQYDVQQDDB5TZXZl
bkxheWVyIFNlY3VyaXR5IFVuaWZpZWQgQ0ExIjAgBgkqhkiG9w0BCQEWE2FkbWlu
QGF6dXJlaGVyby5jb20wHhcNMTUwNTA1MjAyNDQ1WhcNMjUwNTAyMjAyNDQ1WjCB
xjELMAkGA1UEBhMCSUQxEzARBgNVBAgMCkphd2EgVGltdXIxITAfBgNVBAoMGFNl
dmVuTGF5ZXIgU2VjdXJpdHkgSW5jLjEvMC0GA1UECwwmU2V2ZW5MYXllciBTZWN1
cml0eSBDZXJ0aWZpY2F0ZSBJc3N1ZXIxKjAoBgNVBAMMIVNldmVuTGF5ZXIgU2Vj
dXJpdHkgQ1JMIEF1dGhvcml0eTEiMCAGCSqGSIb3DQEJARYTYWRtaW5AYXp1cmVo
ZXJvLmNvbTCCASIwDQYJKoZIhvcNAQEBBQADggEPADCCAQoCggEBAOvWpgdjnXUY
7pFbyhODh60UkYUE9Rp/qVX/UMhPxlurwaqYzK+plZzQ86SKfHtaXez+USEBx/LE
qjEE5AIyilrT1MsGI0Bn7pZgCLm2PuOYCqXAooRwjdfc/d9vI40DedbhoVhUMNnD
3FOyZLIHOrSLoypou1b1q2A1dUv0z++e14PVvwspT47P61cAu2NZ66cvYeeO8rvo
3O2tyUq8GcIEv/+/D5mn+KKfI2SrcebqK2W+mrYljB/FBbUz2Cu5y2VCjfhs6Gup
RqF8GvIZmq1dE68utOnA69GRpjCg1/qk8zJKlnC5falHBKWHLHfsXMubhbhz1dEw
nTesHX4T7G8CAwEAAaNrMGkwDAYDVR0TBAUwAwEB/zAdBgNVHQ4EFgQUnTlZPun4
rOcAEon7iXIcjvctiwMwHwYDVR0jBBgwFoAUjgPyqrLaAqxjZe37yEmAfnWzr/Aw
DgYDVR0PAQH/BAQDAgEGMAkGA1UdEgQCMAAwDQYJKoZIhvcNAQELBQADggEBAK1G
ObHCz2T75swEW8PbabNA+aw82zc3bGuIDbud8dIhnjaPQl3w8YzxaE5CyElofv2g
aSegD4a8902Am1TbDDD1kmZ5kKwciUWcarF/XEas0RLjrhLClzp0gnVCMUkaqNHN
GyNp9Wsn7QMUJ1rpoCeOl4qR/l4YaFvxqjJb5jOqblgUO5XoO5x89GTfX66x9bTA
EZ79dzLu42Yhujx1RwPy06T1fresyg1uXieT3vFay6me0Hj0X26K0lDTz6/Kwsmu
uFxqPSH7aR7KEu+m6H7Ee2rZcoWVjL9f6DJP5prwtDfoqJKNJN4oE2i4zqP6ogZ0
qvWq02mJ4cqOxGJJLwk=
-----END CERTIFICATE-----
