Certificate:
    Data:
        Version: 3 (0x2)
        Serial Number: 181684660067188 (0xa53dc19fdb74)
    Signature Algorithm: sha256WithRSAEncryption
        Issuer: C=ID, ST=Jawa Timur, L=Surabaya, O=SevenLayer Security Inc., OU=SevenLayer Security Certificate Issuer, CN=SevenLayer Security Unified CA/emailAddress=admin@azurehero.com
        Validity
            Not Before: May  5 20:40:52 2015 GMT
            Not After : May  4 20:40:52 2016 GMT
        Subject: C=ID, ST=Jawa Timur, L=Surabaya, O=EVCoba, OU=EVUnit, CN=evcoba
        Subject Public Key Info:
            Public Key Algorithm: rsaEncryption
                Public-Key: (2048 bit)
                Modulus:
                    00:c1:23:a2:d9:5d:db:fa:d1:da:04:a3:7a:65:f0:
                    a3:60:0e:89:69:55:15:cd:83:28:d7:77:61:72:6d:
                    62:8a:83:f5:74:fc:ec:9a:82:87:75:81:a6:99:99:
                    40:de:65:be:bd:c0:ba:69:f9:fe:fe:08:f1:34:ba:
                    a1:5f:63:69:78:e7:e0:f2:78:43:88:22:48:95:ea:
                    ee:be:78:bf:c9:9e:a3:f9:7d:c0:09:3d:8b:6e:80:
                    7d:a1:1e:88:83:e0:09:6e:c1:01:3d:d1:7c:b7:23:
                    5a:c6:c6:22:8f:7c:32:39:25:21:c0:f9:dc:26:eb:
                    19:43:19:5d:e2:48:de:95:d2:f8:cc:2f:69:dd:99:
                    4c:92:2e:bc:d3:1c:30:ad:b4:3b:33:a6:92:ea:d9:
                    7c:14:a7:b3:0c:b5:6c:cc:45:0c:69:c6:65:32:79:
                    49:2f:79:3c:38:67:41:33:89:71:66:8b:07:4f:f1:
                    c4:ac:ec:d6:3d:7a:26:1b:6a:d1:9f:a1:f0:43:ae:
                    c8:9a:1c:1f:e1:ac:2a:17:e5:13:90:e1:c3:b8:31:
                    97:85:42:1c:6a:0c:e6:53:70:4d:d7:2b:34:10:f9:
                    4f:30:e0:36:3a:ed:2c:e7:1a:71:54:22:09:4b:87:
                    16:33:83:00:0e:20:08:dd:8b:ee:d6:9f:8c:23:db:
                    52:eb
                Exponent: 65537 (0x10001)
        X509v3 extensions:
            X509v3 Basic Constraints: 
                CA:FALSE
            X509v3 Subject Key Identifier: 
                2A:F2:62:58:DB:F4:D1:CF:FE:D2:84:FF:E1:AA:FB:1B:AF:E7:7B:6D
            X509v3 Authority Key Identifier: 
                keyid:8E:03:F2:AA:B2:DA:02:AC:63:65:ED:FB:C8:49:80:7E:75:B3:AF:F0

            X509v3 Key Usage: 
                Digital Signature, Key Encipherment
            X509v3 Extended Key Usage: 
                TLS Web Server Authentication, TLS Web Client Authentication
            X509v3 Issuer Alternative Name: 
                <EMPTY>

            X509v3 CRL Distribution Points: 

                Reasons:
                  Key Compromise, CA Compromise, Privilege Withdrawn

            X509v3 Certificate Policies: 
                Policy: 2.23.140.1.1

    Signature Algorithm: sha256WithRSAEncryption
         6b:2d:64:3b:f0:c0:99:bf:b9:f0:a4:cb:32:fa:08:10:32:71:
         cb:8d:46:18:95:a8:8f:f4:12:32:9d:cb:9f:84:7a:62:34:6c:
         70:84:a3:d0:ca:99:cf:a0:f2:52:39:64:0d:fd:c7:61:e0:74:
         2a:39:e0:ba:6b:4d:22:6f:d5:da:09:16:29:67:d9:08:b9:98:
         23:14:af:bc:39:e0:2f:89:e5:8c:1f:11:30:48:cd:5c:86:06:
         63:34:14:93:3e:af:3d:de:4c:87:2a:17:b5:65:50:af:91:b4:
         96:94:70:68:89:ab:cc:0c:f8:ab:bb:92:7a:64:b5:46:c6:28:
         85:c1:d1:6f:d0:05:61:3c:56:36:d6:40:28:08:a7:16:64:50:
         ed:db:ee:f6:b3:a1:71:24:55:f1:a4:f3:05:a8:c0:40:62:05:
         a3:50:76:d6:dd:ce:cf:e4:66:a7:ff:f9:28:50:53:ca:8f:c6:
         6d:5e:d3:df:2e:1d:40:1e:b8:bc:4a:fd:3b:ac:38:80:a6:af:
         a8:4b:06:a2:b8:f1:47:6b:d5:d0:b5:50:7e:6c:e7:e4:69:73:
         eb:1c:cf:b7:fc:77:5c:c6:97:a3:0b:a5:77:a7:87:d5:da:31:
         e9:45:62:af:ee:77:fb:75:eb:06:f3:56:ff:fc:82:32:81:e0:
         48:93:66:a3
-----BEGIN CERTIFICATE-----
MIIEazCCA1OgAwIBAgIHAKU9wZ/bdDANBgkqhkiG9w0BAQsFADCB1jELMAkGA1UE
BhMCSUQxEzARBgNVBAgMCkphd2EgVGltdXIxETAPBgNVBAcMCFN1cmFiYXlhMSEw
HwYDVQQKDBhTZXZlbkxheWVyIFNlY3VyaXR5IEluYy4xLzAtBgNVBAsMJlNldmVu
TGF5ZXIgU2VjdXJpdHkgQ2VydGlmaWNhdGUgSXNzdWVyMScwJQYDVQQDDB5TZXZl
bkxheWVyIFNlY3VyaXR5IFVuaWZpZWQgQ0ExIjAgBgkqhkiG9w0BCQEWE2FkbWlu
QGF6dXJlaGVyby5jb20wHhcNMTUwNTA1MjA0MDUyWhcNMTYwNTA0MjA0MDUyWjBo
MQswCQYDVQQGEwJJRDETMBEGA1UECAwKSmF3YSBUaW11cjERMA8GA1UEBwwIU3Vy
YWJheWExDzANBgNVBAoMBkVWQ29iYTEPMA0GA1UECwwGRVZVbml0MQ8wDQYDVQQD
DAZldmNvYmEwggEiMA0GCSqGSIb3DQEBAQUAA4IBDwAwggEKAoIBAQDBI6LZXdv6
0doEo3pl8KNgDolpVRXNgyjXd2FybWKKg/V0/Oyagod1gaaZmUDeZb69wLpp+f7+
CPE0uqFfY2l45+DyeEOIIkiV6u6+eL/JnqP5fcAJPYtugH2hHoiD4AluwQE90Xy3
I1rGxiKPfDI5JSHA+dwm6xlDGV3iSN6V0vjML2ndmUySLrzTHDCttDszppLq2XwU
p7MMtWzMRQxpxmUyeUkveTw4Z0EziXFmiwdP8cSs7NY9eiYbatGfofBDrsiaHB/h
rCoX5ROQ4cO4MZeFQhxqDOZTcE3XKzQQ+U8w4DY67SznGnFUIglLhxYzgwAOIAjd
i+7Wn4wj21LrAgMBAAGjgaowgacwCQYDVR0TBAIwADAdBgNVHQ4EFgQUKvJiWNv0
0c/+0oT/4ar7G6/ne20wHwYDVR0jBBgwFoAUjgPyqrLaAqxjZe37yEmAfnWzr/Aw
CwYDVR0PBAQDAgWgMB0GA1UdJQQWMBQGCCsGAQUFBwMBBggrBgEFBQcDAjAJBgNV
HRIEAjAAMA8GA1UdHwQIMAYwBIECAGEwEgYDVR0gBAswCTAHBgVngQwBATANBgkq
hkiG9w0BAQsFAAOCAQEAay1kO/DAmb+58KTLMvoIEDJxy41GGJWoj/QSMp3Ln4R6
YjRscISj0MqZz6DyUjlkDf3HYeB0KjngumtNIm/V2gkWKWfZCLmYIxSvvDngL4nl
jB8RMEjNXIYGYzQUkz6vPd5MhyoXtWVQr5G0lpRwaImrzAz4q7uSemS1RsYohcHR
b9AFYTxWNtZAKAinFmRQ7dvu9rOhcSRV8aTzBajAQGIFo1B21t3Oz+Rmp//5KFBT
yo/GbV7T3y4dQB64vEr9O6w4gKavqEsGorjxR2vV0LVQfmzn5Glz6xzPt/x3XMaX
owuld6eH1dox6UVir+53+3XrBvNW//yCMoHgSJNmow==
-----END CERTIFICATE-----
