Certificate:
    Data:
        Version: 3 (0x2)
        Serial Number: 181684660067185 (0xa53dc19fdb71)
    Signature Algorithm: sha256WithRSAEncryption
        Issuer: C=ID, ST=Jawa Timur, L=Surabaya, O=SevenLayer Security Inc., OU=SevenLayer Security Certificate Issuer, CN=SevenLayer Security Unified CA/emailAddress=admin@azurehero.com
        Validity
            Not Before: May  5 20:37:08 2015 GMT
            Not After : May  4 20:37:08 2016 GMT
        Subject: C=ID, ST=Jawa Timur, L=Surabaya, O=GenericName, OU=GenericUnit, CN=generic
        Subject Public Key Info:
            Public Key Algorithm: rsaEncryption
                Public-Key: (2048 bit)
                Modulus:
                    00:d2:0d:91:6e:00:14:30:8d:0a:bf:5b:93:e0:4d:
                    b7:b1:f7:4f:eb:57:b2:f6:89:9e:2d:5e:14:3c:a3:
                    d9:6f:5d:b9:30:e0:7e:c7:16:e6:dd:92:9b:78:37:
                    4e:2e:bd:c6:21:0e:ff:36:27:1c:0f:88:76:a5:cc:
                    f7:aa:70:74:4b:c5:35:5e:71:e8:b9:c8:3a:1d:af:
                    c6:25:79:5b:7a:42:2e:43:28:f3:d8:91:fc:7a:85:
                    0a:ca:7b:f0:be:09:b8:52:09:da:e5:59:28:0a:07:
                    e8:c5:4a:f6:1a:9c:aa:83:b2:a3:e5:9f:07:a5:d9:
                    c5:a8:ec:f7:9d:55:11:cb:53:57:af:79:12:89:7d:
                    e0:ab:d0:81:23:ab:ac:fd:83:fc:fd:76:e8:0a:19:
                    a6:f4:99:ae:78:41:d5:3a:9e:f6:4c:bb:ea:6d:a0:
                    23:02:85:f2:b1:ee:79:ad:cf:f9:87:2e:9d:40:99:
                    57:9f:5e:33:da:24:0f:1e:6d:28:a5:19:4f:99:41:
                    5d:60:45:ee:20:91:5c:c6:08:60:80:7a:82:dc:fa:
                    96:dc:4d:82:bf:46:ad:5a:ed:e6:8d:8f:7f:ae:9a:
                    73:3b:37:77:77:3b:fd:f1:5f:66:58:be:f6:94:d1:
                    13:3c:90:bd:80:26:7e:49:05:91:bb:6e:ef:bd:93:
                    2a:f3
                Exponent: 65537 (0x10001)
        X509v3 extensions:
            X509v3 Basic Constraints: 
                CA:FALSE
            X509v3 Subject Key Identifier: 
                DD:C5:CA:9A:11:90:4E:F7:B6:14:C3:3A:81:C5:52:43:8F:E9:78:A9
            X509v3 Authority Key Identifier: 
                keyid:8E:03:F2:AA:B2:DA:02:AC:63:65:ED:FB:C8:49:80:7E:75:B3:AF:F0

            X509v3 Key Usage: 
                Digital Signature, Non Repudiation
            X509v3 Extended Key Usage: 
                E-mail Protection
            X509v3 Issuer Alternative Name: 
                <EMPTY>

            X509v3 CRL Distribution Points: 

                Reasons:
                  Key Compromise, CA Compromise, Privilege Withdrawn

    Signature Algorithm: sha256WithRSAEncryption
         4e:e4:db:ae:ff:be:ab:16:80:be:40:b0:60:0e:8d:6f:c9:f1:
         67:88:9e:d2:af:4c:32:63:2d:7e:39:6a:cd:2d:fb:07:e1:64:
         49:48:12:b0:f9:ce:ab:e8:52:ec:55:6d:aa:55:f8:24:b6:c7:
         b0:fd:ea:56:95:d4:de:d8:1a:de:37:90:44:95:6b:7d:05:44:
         0a:17:23:1d:18:96:77:be:dc:b5:2b:44:74:4c:45:7e:67:68:
         fb:f5:27:05:f3:bf:a8:0f:0d:77:20:27:8e:62:de:e0:63:44:
         08:a5:84:69:bc:d2:15:61:38:17:10:82:a8:1a:e7:74:a1:15:
         e5:6a:42:e2:62:ef:32:29:c1:ae:0f:ae:f1:40:78:53:58:0b:
         a8:ae:96:19:7b:98:2f:27:78:b7:79:82:ad:a5:5b:b7:29:6c:
         50:9d:9c:79:3d:0d:ab:a6:49:56:8b:bd:14:ca:2a:ac:e3:cf:
         69:b2:65:01:21:16:33:39:db:a4:13:8e:1f:38:1b:ab:f3:81:
         5b:95:59:0d:c7:c6:9b:1a:1b:2f:0a:45:48:ec:d9:02:b2:48:
         94:07:1a:c8:2f:ba:12:de:96:c3:5b:e8:c7:66:30:6a:ce:68:
         46:69:7d:cc:e8:b5:73:d0:75:15:8b:cf:ce:8a:13:d8:84:9f:
         23:43:94:ef
-----BEGIN CERTIFICATE-----
MIIEWDCCA0CgAwIBAgIHAKU9wZ/bcTANBgkqhkiG9w0BAQsFADCB1jELMAkGA1UE
BhMCSUQxEzARBgNVBAgMCkphd2EgVGltdXIxETAPBgNVBAcMCFN1cmFiYXlhMSEw
HwYDVQQKDBhTZXZlbkxheWVyIFNlY3VyaXR5IEluYy4xLzAtBgNVBAsMJlNldmVu
TGF5ZXIgU2VjdXJpdHkgQ2VydGlmaWNhdGUgSXNzdWVyMScwJQYDVQQDDB5TZXZl
bkxheWVyIFNlY3VyaXR5IFVuaWZpZWQgQ0ExIjAgBgkqhkiG9w0BCQEWE2FkbWlu
QGF6dXJlaGVyby5jb20wHhcNMTUwNTA1MjAzNzA4WhcNMTYwNTA0MjAzNzA4WjBz
MQswCQYDVQQGEwJJRDETMBEGA1UECAwKSmF3YSBUaW11cjERMA8GA1UEBwwIU3Vy
YWJheWExFDASBgNVBAoMC0dlbmVyaWNOYW1lMRQwEgYDVQQLDAtHZW5lcmljVW5p
dDEQMA4GA1UEAwwHZ2VuZXJpYzCCASIwDQYJKoZIhvcNAQEBBQADggEPADCCAQoC
ggEBANINkW4AFDCNCr9bk+BNt7H3T+tXsvaJni1eFDyj2W9duTDgfscW5t2Sm3g3
Ti69xiEO/zYnHA+IdqXM96pwdEvFNV5x6LnIOh2vxiV5W3pCLkMo89iR/HqFCsp7
8L4JuFIJ2uVZKAoH6MVK9hqcqoOyo+WfB6XZxajs951VEctTV695Eol94KvQgSOr
rP2D/P126AoZpvSZrnhB1Tqe9ky76m2gIwKF8rHuea3P+YcunUCZV59eM9okDx5t
KKUZT5lBXWBF7iCRXMYIYIB6gtz6ltxNgr9GrVrt5o2Pf66aczs3d3c7/fFfZli+
9pTREzyQvYAmfkkFkbtu772TKvMCAwEAAaOBjDCBiTAJBgNVHRMEAjAAMB0GA1Ud
DgQWBBTdxcqaEZBO97YUwzqBxVJDj+l4qTAfBgNVHSMEGDAWgBSOA/KqstoCrGNl
7fvISYB+dbOv8DALBgNVHQ8EBAMCBsAwEwYDVR0lBAwwCgYIKwYBBQUHAwQwCQYD
VR0SBAIwADAPBgNVHR8ECDAGMASBAgBhMA0GCSqGSIb3DQEBCwUAA4IBAQBO5Nuu
/76rFoC+QLBgDo1vyfFniJ7Sr0wyYy1+OWrNLfsH4WRJSBKw+c6r6FLsVW2qVfgk
tsew/epWldTe2BreN5BElWt9BUQKFyMdGJZ3vty1K0R0TEV+Z2j79ScF87+oDw13
ICeOYt7gY0QIpYRpvNIVYTgXEIKoGud0oRXlakLiYu8yKcGuD67xQHhTWAuorpYZ
e5gvJ3i3eYKtpVu3KWxQnZx5PQ2rpklWi70Uyiqs489psmUBIRYzOdukE44fOBur
84FblVkNx8abGhsvCkVI7NkCskiUBxrIL7oS3pbDW+jHZjBqzmhGaX3M6LVz0HUV
i8/OihPYhJ8jQ5Tv
-----END CERTIFICATE-----
