Certificate:
    Data:
        Version: 3 (0x2)
        Serial Number: 181684660067187 (0xa53dc19fdb73)
    Signature Algorithm: sha256WithRSAEncryption
        Issuer: C=ID, ST=Jawa Timur, L=Surabaya, O=SevenLayer Security Inc., OU=SevenLayer Security Certificate Issuer, CN=SevenLayer Security Unified CA/emailAddress=admin@azurehero.com
        Validity
            Not Before: May  5 20:40:36 2015 GMT
            Not After : May  4 20:40:36 2016 GMT
        Subject: C=ID, ST=Jawa Timur, L=Surabaya, O=OVCoba, OU=OVUnit, CN=ovcoba
        Subject Public Key Info:
            Public Key Algorithm: rsaEncryption
                Public-Key: (2048 bit)
                Modulus:
                    00:d3:de:72:ac:15:c5:be:f0:38:42:91:9e:00:a6:
                    76:3b:4a:fc:ea:13:03:a2:90:94:40:a8:2f:20:02:
                    3a:70:90:27:1a:56:a2:cd:2f:bf:59:27:77:5d:05:
                    ab:52:09:05:98:f0:67:1f:7a:d5:93:f6:87:7a:9c:
                    f6:06:ff:28:c0:77:2d:12:eb:69:9d:bb:98:1c:a0:
                    f9:5a:c3:79:7a:44:32:86:91:4c:1a:fd:9e:1b:d3:
                    d2:84:38:01:ae:25:4f:79:58:fb:b8:23:8a:22:cd:
                    af:73:5e:c5:57:a6:58:70:47:70:6a:d1:62:1e:7e:
                    ed:8b:bb:58:20:df:3b:85:d0:16:cb:14:f2:58:c0:
                    4d:bd:27:4d:6b:dd:e8:86:87:2b:5c:30:ae:66:d8:
                    2d:4e:b3:6d:98:4b:b1:4e:5f:dc:54:6d:79:2f:ad:
                    b3:59:09:97:e3:d7:4d:70:2f:1b:7c:c9:f8:2a:b0:
                    5e:eb:a5:3d:32:ef:ee:2d:89:10:c5:63:60:f9:c7:
                    e3:c1:00:7c:dc:a3:e7:21:37:6a:ad:75:b0:a4:0a:
                    e8:1a:0a:42:b1:82:9e:89:9a:73:fd:9e:06:77:02:
                    f1:4e:72:14:fe:db:48:f7:42:20:f4:64:09:7c:f8:
                    11:88:ac:cf:3e:cc:06:50:68:a2:f6:bb:e4:75:22:
                    7c:b9
                Exponent: 65537 (0x10001)
        X509v3 extensions:
            X509v3 Basic Constraints: 
                CA:FALSE
            X509v3 Subject Key Identifier: 
                3E:CC:96:D1:9B:DF:7E:7A:A1:EE:E6:3D:47:C7:77:87:88:BE:EA:FF
            X509v3 Authority Key Identifier: 
                keyid:8E:03:F2:AA:B2:DA:02:AC:63:65:ED:FB:C8:49:80:7E:75:B3:AF:F0

            X509v3 Key Usage: 
                Digital Signature, Key Encipherment
            X509v3 Extended Key Usage: 
                TLS Web Server Authentication, TLS Web Client Authentication
            X509v3 Issuer Alternative Name: 
                <EMPTY>

            X509v3 CRL Distribution Points: 

                Reasons:
                  Key Compromise, CA Compromise, Privilege Withdrawn

            X509v3 Certificate Policies: 
                Policy: 2.23.140.1.2.2

    Signature Algorithm: sha256WithRSAEncryption
         6c:95:f0:0d:dd:7c:be:fe:80:93:10:36:95:8d:47:af:79:fd:
         4b:f5:ef:97:ad:f1:73:b1:4c:80:74:f0:e2:a8:76:5a:5b:47:
         11:5b:c8:11:cb:42:03:2b:8a:33:0c:24:a4:58:a2:3b:6f:06:
         93:8c:19:26:f5:fa:3b:b8:98:f6:0c:53:1b:43:99:40:41:a6:
         f9:02:6e:93:34:55:7a:80:1a:cd:64:5e:00:d6:d1:f9:65:77:
         cc:1c:a5:2a:97:17:44:58:0b:67:1d:cd:d7:4f:85:c4:2e:83:
         8a:2f:dd:87:e7:55:23:5d:31:ec:42:6b:35:d8:85:f9:74:93:
         db:d5:39:43:d6:87:22:1e:f1:d7:46:a4:35:fe:a5:66:8e:5d:
         9b:4f:24:00:b6:81:12:3a:48:54:08:57:50:88:b1:cd:79:d1:
         73:73:32:fb:ca:be:a9:25:01:de:6d:ce:10:85:04:c1:61:92:
         0f:c7:d9:83:60:93:b0:1b:75:5a:47:0b:d2:14:28:7e:a7:bd:
         39:b0:97:b0:be:07:b9:87:e1:a6:c0:09:e6:16:57:85:3e:0d:
         e8:32:99:6f:9e:0e:0c:fe:72:b3:b0:fd:6a:24:70:66:86:c1:
         5d:2c:e3:a1:f3:ba:31:04:b5:30:87:8e:14:ae:41:9f:00:91:
         d6:dc:58:ee
-----BEGIN CERTIFICATE-----
MIIEbDCCA1SgAwIBAgIHAKU9wZ/bczANBgkqhkiG9w0BAQsFADCB1jELMAkGA1UE
BhMCSUQxEzARBgNVBAgMCkphd2EgVGltdXIxETAPBgNVBAcMCFN1cmFiYXlhMSEw
HwYDVQQKDBhTZXZlbkxheWVyIFNlY3VyaXR5IEluYy4xLzAtBgNVBAsMJlNldmVu
TGF5ZXIgU2VjdXJpdHkgQ2VydGlmaWNhdGUgSXNzdWVyMScwJQYDVQQDDB5TZXZl
bkxheWVyIFNlY3VyaXR5IFVuaWZpZWQgQ0ExIjAgBgkqhkiG9w0BCQEWE2FkbWlu
QGF6dXJlaGVyby5jb20wHhcNMTUwNTA1MjA0MDM2WhcNMTYwNTA0MjA0MDM2WjBo
MQswCQYDVQQGEwJJRDETMBEGA1UECAwKSmF3YSBUaW11cjERMA8GA1UEBwwIU3Vy
YWJheWExDzANBgNVBAoMBk9WQ29iYTEPMA0GA1UECwwGT1ZVbml0MQ8wDQYDVQQD
DAZvdmNvYmEwggEiMA0GCSqGSIb3DQEBAQUAA4IBDwAwggEKAoIBAQDT3nKsFcW+
8DhCkZ4ApnY7SvzqEwOikJRAqC8gAjpwkCcaVqLNL79ZJ3ddBatSCQWY8GcfetWT
9od6nPYG/yjAdy0S62mdu5gcoPlaw3l6RDKGkUwa/Z4b09KEOAGuJU95WPu4I4oi
za9zXsVXplhwR3Bq0WIefu2Lu1gg3zuF0BbLFPJYwE29J01r3eiGhytcMK5m2C1O
s22YS7FOX9xUbXkvrbNZCZfj101wLxt8yfgqsF7rpT0y7+4tiRDFY2D5x+PBAHzc
o+chN2qtdbCkCugaCkKxgp6JmnP9ngZ3AvFOchT+20j3QiD0ZAl8+BGIrM8+zAZQ
aKL2u+R1Iny5AgMBAAGjgaswgagwCQYDVR0TBAIwADAdBgNVHQ4EFgQUPsyW0Zvf
fnqh7uY9R8d3h4i+6v8wHwYDVR0jBBgwFoAUjgPyqrLaAqxjZe37yEmAfnWzr/Aw
CwYDVR0PBAQDAgWgMB0GA1UdJQQWMBQGCCsGAQUFBwMBBggrBgEFBQcDAjAJBgNV
HRIEAjAAMA8GA1UdHwQIMAYwBIECAGEwEwYDVR0gBAwwCjAIBgZngQwBAgIwDQYJ
KoZIhvcNAQELBQADggEBAGyV8A3dfL7+gJMQNpWNR695/Uv175et8XOxTIB08OKo
dlpbRxFbyBHLQgMrijMMJKRYojtvBpOMGSb1+ju4mPYMUxtDmUBBpvkCbpM0VXqA
Gs1kXgDW0flld8wcpSqXF0RYC2cdzddPhcQug4ov3YfnVSNdMexCazXYhfl0k9vV
OUPWhyIe8ddGpDX+pWaOXZtPJAC2gRI6SFQIV1CIsc150XNzMvvKvqklAd5tzhCF
BMFhkg/H2YNgk7AbdVpHC9IUKH6nvTmwl7C+B7mH4abACeYWV4U+DegymW+eDgz+
crOw/WokcGaGwV0s46HzujEEtTCHjhSuQZ8AkdbcWO4=
-----END CERTIFICATE-----
