Certificate:
    Data:
        Version: 3 (0x2)
        Serial Number: 181684660067189 (0xa53dc19fdb75)
    Signature Algorithm: sha256WithRSAEncryption
        Issuer: C=ID, ST=Jawa Timur, L=Surabaya, O=SevenLayer Security Inc., OU=SevenLayer Security Certificate Issuer, CN=SevenLayer Security Unified CA/emailAddress=admin@azurehero.com
        Validity
            Not Before: May  5 20:41:29 2015 GMT
            Not After : May  4 20:41:29 2016 GMT
        Subject: C=ID, ST=Jawa Timur, L=Surabaya, O=SpecialCoba, OU=SpecialUnit, CN=specialcoba
        Subject Public Key Info:
            Public Key Algorithm: rsaEncryption
                Public-Key: (2048 bit)
                Modulus:
                    00:ba:0c:5c:10:44:45:66:dd:e2:e5:70:cf:db:62:
                    a9:c6:d4:42:0d:f3:8e:18:93:97:91:7d:3b:ca:64:
                    e3:f4:b8:8f:59:a2:2e:73:60:1b:23:f5:91:15:b0:
                    a8:15:e3:6b:61:11:c3:84:ca:4a:6f:3c:8f:7f:aa:
                    e5:af:c6:92:5e:ff:71:c6:64:3f:e9:b2:01:c9:ca:
                    40:43:f7:72:64:fc:47:d4:c6:05:43:cd:33:ca:68:
                    9c:cb:9a:9c:ce:74:2b:df:06:de:08:a0:c5:1d:78:
                    c6:8d:50:4e:d9:a0:4a:41:e0:3f:a1:9f:d0:85:41:
                    c5:8e:50:1b:be:a8:11:8f:6b:cd:0b:e3:55:4e:8a:
                    e0:3c:46:0c:7b:d9:e9:f2:fe:de:c5:e1:b2:0c:71:
                    0a:c7:36:ec:cb:62:d1:1a:dc:d9:e2:07:9d:64:66:
                    92:15:4e:7c:00:ba:85:ed:5a:71:07:3d:a1:0e:82:
                    33:b3:c3:dc:d9:a7:52:a3:83:48:63:de:1f:34:fb:
                    00:2f:e6:ad:11:94:4f:3f:36:40:3a:90:0e:83:ed:
                    1f:b2:9e:a0:c3:8e:46:7c:bd:b3:4e:b4:9e:f2:48:
                    7e:6a:e9:0d:ed:76:d9:e4:e5:91:4b:1e:0b:4b:ec:
                    3d:b7:aa:6b:56:47:2f:01:f3:fb:33:1b:e7:a9:65:
                    ba:a7
                Exponent: 65537 (0x10001)
        X509v3 extensions:
            X509v3 Basic Constraints: 
                CA:FALSE
            X509v3 Subject Key Identifier: 
                49:3C:F9:2E:A6:D3:56:8E:D4:B0:60:72:D2:3E:BB:2E:95:E5:E1:93
            X509v3 Authority Key Identifier: 
                keyid:8E:03:F2:AA:B2:DA:02:AC:63:65:ED:FB:C8:49:80:7E:75:B3:AF:F0

            X509v3 Key Usage: 
                Digital Signature, Data Encipherment, Key Agreement
            X509v3 Extended Key Usage: 
                Code Signing, E-mail Protection, Time Stamping, Microsoft Individual Code Signing, Microsoft Encrypted File System
            X509v3 Issuer Alternative Name: 
                <EMPTY>

            X509v3 CRL Distribution Points: 

                Reasons:
                  Key Compromise, CA Compromise, Privilege Withdrawn

    Signature Algorithm: sha256WithRSAEncryption
         69:d3:fd:ef:01:72:79:ba:e3:17:85:ac:b2:da:4c:ed:84:a4:
         b9:b0:b2:5b:a4:a0:d1:33:4f:a7:af:2e:36:eb:89:51:e2:a4:
         b8:ba:ba:61:e7:a7:3a:55:28:a6:10:4a:78:5f:33:dc:da:be:
         f1:e9:5b:7e:40:0f:09:b0:b9:a0:c5:1a:07:e7:f4:82:66:fd:
         79:6e:01:ea:0e:21:ce:f6:aa:4b:aa:33:fa:2e:ac:8e:34:f3:
         43:5a:14:c6:89:5e:3a:83:5a:b5:ec:c2:d4:15:98:e2:99:61:
         e6:c9:c3:f2:af:a3:c3:c7:84:27:21:d7:80:2d:50:6e:58:a9:
         9d:84:a8:75:81:b4:d2:85:28:31:44:ab:8c:79:8c:1a:82:d6:
         5f:d2:34:8b:3c:b0:fd:33:fd:6a:ca:e7:23:ba:2b:8c:70:40:
         3d:81:35:22:ff:0d:4b:d9:15:b9:d9:5e:b7:ed:06:19:e0:65:
         f2:33:4e:74:c7:40:36:1a:57:2e:c7:d3:84:a1:25:a9:f4:e0:
         bd:88:61:9f:48:f7:4c:03:b2:fc:7d:a9:22:08:9b:8e:09:0e:
         74:78:10:78:13:e8:8d:cd:1b:c8:0f:2f:98:e4:51:cc:44:fe:
         70:10:06:e0:17:d2:11:0a:a3:9f:81:c6:ab:7e:d7:ed:4d:e6:
         d4:3e:41:ce
-----BEGIN CERTIFICATE-----
MIIEiDCCA3CgAwIBAgIHAKU9wZ/bdTANBgkqhkiG9w0BAQsFADCB1jELMAkGA1UE
BhMCSUQxEzARBgNVBAgMCkphd2EgVGltdXIxETAPBgNVBAcMCFN1cmFiYXlhMSEw
HwYDVQQKDBhTZXZlbkxheWVyIFNlY3VyaXR5IEluYy4xLzAtBgNVBAsMJlNldmVu
TGF5ZXIgU2VjdXJpdHkgQ2VydGlmaWNhdGUgSXNzdWVyMScwJQYDVQQDDB5TZXZl
bkxheWVyIFNlY3VyaXR5IFVuaWZpZWQgQ0ExIjAgBgkqhkiG9w0BCQEWE2FkbWlu
QGF6dXJlaGVyby5jb20wHhcNMTUwNTA1MjA0MTI5WhcNMTYwNTA0MjA0MTI5WjB3
MQswCQYDVQQGEwJJRDETMBEGA1UECAwKSmF3YSBUaW11cjERMA8GA1UEBwwIU3Vy
YWJheWExFDASBgNVBAoMC1NwZWNpYWxDb2JhMRQwEgYDVQQLDAtTcGVjaWFsVW5p
dDEUMBIGA1UEAwwLc3BlY2lhbGNvYmEwggEiMA0GCSqGSIb3DQEBAQUAA4IBDwAw
ggEKAoIBAQC6DFwQREVm3eLlcM/bYqnG1EIN844Yk5eRfTvKZOP0uI9Zoi5zYBsj
9ZEVsKgV42thEcOEykpvPI9/quWvxpJe/3HGZD/psgHJykBD93Jk/EfUxgVDzTPK
aJzLmpzOdCvfBt4IoMUdeMaNUE7ZoEpB4D+hn9CFQcWOUBu+qBGPa80L41VOiuA8
Rgx72eny/t7F4bIMcQrHNuzLYtEa3NniB51kZpIVTnwAuoXtWnEHPaEOgjOzw9zZ
p1Kjg0hj3h80+wAv5q0RlE8/NkA6kA6D7R+ynqDDjkZ8vbNOtJ7ySH5q6Q3tdtnk
5ZFLHgtL7D23qmtWRy8B8/szG+epZbqnAgMBAAGjgbgwgbUwCQYDVR0TBAIwADAd
BgNVHQ4EFgQUSTz5LqbTVo7UsGBy0j67LpXl4ZMwHwYDVR0jBBgwFoAUjgPyqrLa
AqxjZe37yEmAfnWzr/AwCwYDVR0PBAQDAgOYMD8GA1UdJQQ4MDYGCCsGAQUFBwMD
BggrBgEFBQcDBAYIKwYBBQUHAwgGCisGAQQBgjcCARUGCisGAQQBgjcKAwQwCQYD
VR0SBAIwADAPBgNVHR8ECDAGMASBAgBhMA0GCSqGSIb3DQEBCwUAA4IBAQBp0/3v
AXJ5uuMXhayy2kzthKS5sLJbpKDRM0+nry4264lR4qS4urph56c6VSimEEp4XzPc
2r7x6Vt+QA8JsLmgxRoH5/SCZv15bgHqDiHO9qpLqjP6LqyONPNDWhTGiV46g1q1
7MLUFZjimWHmycPyr6PDx4QnIdeALVBuWKmdhKh1gbTShSgxRKuMeYwagtZf0jSL
PLD9M/1qyucjuiuMcEA9gTUi/w1L2RW52V637QYZ4GXyM050x0A2Glcux9OEoSWp
9OC9iGGfSPdMA7L8fakiCJuOCQ50eBB4E+iNzRvIDy+Y5FHMRP5wEAbgF9IRCqOf
gcarftftTebUPkHO
-----END CERTIFICATE-----
